target datalayout = "e-m:e-p270:32:32-p271:32:32-p272:64:64-i64:64-i128:128-f80:128-n8:16:32:64-S128"
target triple = "x86_64-pc-linux-gnu"

%struct.PACKET = type { ptr, i64 }

; Function Attrs: inlinehint nounwind uwtable
define internal i64 @ossl_quic_vlint_encode_len(i64 noundef %0) #3 {
  %2 = alloca i64, align 8
  %3 = alloca i64, align 8
  store i64 %0, ptr %3, align 8, !tbaa !8
  %4 = load i64, ptr %3, align 8, !tbaa !8
  %5 = icmp ult i64 %4, 64
  br i1 %5, label %6, label %7

6:                                                ; preds = %1
  store i64 1, ptr %2, align 8
  br label %20

7:                                                ; preds = %1
  %8 = load i64, ptr %3, align 8, !tbaa !8
  %9 = icmp ult i64 %8, 16384
  br i1 %9, label %10, label %11

10:                                               ; preds = %7
  store i64 2, ptr %2, align 8
  br label %20

11:                                               ; preds = %7
  %12 = load i64, ptr %3, align 8, !tbaa !8
  %13 = icmp ult i64 %12, 1073741824
  br i1 %13, label %14, label %15

14:                                               ; preds = %11
  store i64 4, ptr %2, align 8
  br label %20

15:                                               ; preds = %11
  %16 = load i64, ptr %3, align 8, !tbaa !8
  %17 = icmp ule i64 %16, 4611686018427387903
  br i1 %17, label %18, label %19

18:                                               ; preds = %15
  store i64 8, ptr %2, align 8
  br label %20

19:                                               ; preds = %15
  store i64 0, ptr %2, align 8
  br label %20

20:                                               ; preds = %19, %18, %14, %10, %6
  %21 = load i64, ptr %2, align 8
  ret i64 %21
}

; Function Attrs: inlinehint nounwind uwtable
define internal i64 @ossl_quic_vlint_decode_len(i8 noundef zeroext %0) #3 {
  %2 = alloca i8, align 1
  store i8 %0, ptr %2, align 1, !tbaa !56
  %3 = load i8, ptr %2, align 1, !tbaa !56
  %4 = zext i8 %3 to i32
  %5 = and i32 %4, 192
  %6 = ashr i32 %5, 6
  %7 = shl i32 1, %6
  %8 = zext i32 %7 to i64
  ret i64 %8
}

; Function Attrs: inlinehint nounwind uwtable
define internal i64 @PACKET_remaining(ptr noundef %0) #3 {
  %2 = alloca ptr, align 8
  store ptr %0, ptr %2, align 8, !tbaa !75
  %3 = load ptr, ptr %2, align 8, !tbaa !75
  %4 = getelementptr inbounds nuw %struct.PACKET, ptr %3, i32 0, i32 1
  %5 = load i64, ptr %4, align 8, !tbaa !85
  ret i64 %5
}

; Function Attrs: inlinehint nounwind uwtable
define internal i32 @PACKET_peek_quic_vlint_ex(ptr noundef %0, ptr noundef %1, ptr noundef %2) #3 {
  %4 = alloca i32, align 4
  %5 = alloca ptr, align 8
  %6 = alloca ptr, align 8
  %7 = alloca ptr, align 8
  %8 = alloca i64, align 8
  %9 = alloca i32, align 4
  store ptr %0, ptr %5, align 8, !tbaa !75
  store ptr %1, ptr %6, align 8, !tbaa !76
  store ptr %2, ptr %7, align 8, !tbaa !78
  call void @llvm.lifetime.start.p0(i64 8, ptr %8) #7
  %10 = load ptr, ptr %5, align 8, !tbaa !75
  %11 = call i64 @PACKET_remaining(ptr noundef %10)
  %12 = icmp ult i64 %11, 1
  br i1 %12, label %13, label %14

13:                                               ; preds = %3
  store i32 0, ptr %4, align 4
  store i32 1, ptr %9, align 4
  br label %42

14:                                               ; preds = %3
  %15 = load ptr, ptr %5, align 8, !tbaa !75
  %16 = getelementptr inbounds nuw %struct.PACKET, ptr %15, i32 0, i32 0
  %17 = load ptr, ptr %16, align 8, !tbaa !80
  %18 = load i8, ptr %17, align 1, !tbaa !56
  %19 = call i64 @ossl_quic_vlint_decode_len(i8 noundef zeroext %18)
  store i64 %19, ptr %8, align 8, !tbaa !8
  %20 = load ptr, ptr %5, align 8, !tbaa !75
  %21 = call i64 @PACKET_remaining(ptr noundef %20)
  %22 = load i64, ptr %8, align 8, !tbaa !8
  %23 = icmp ult i64 %21, %22
  br i1 %23, label %24, label %25

24:                                               ; preds = %14
  store i32 0, ptr %4, align 4
  store i32 1, ptr %9, align 4
  br label %42

25:                                               ; preds = %14
  %26 = load ptr, ptr %5, align 8, !tbaa !75
  %27 = getelementptr inbounds nuw %struct.PACKET, ptr %26, i32 0, i32 0
  %28 = load ptr, ptr %27, align 8, !tbaa !80
  %29 = call i64 @ossl_quic_vlint_decode_unchecked(ptr noundef %28)
  %30 = load ptr, ptr %6, align 8, !tbaa !76
  store i64 %29, ptr %30, align 8, !tbaa !8
  %31 = load ptr, ptr %7, align 8, !tbaa !78
  %32 = icmp ne ptr %31, null
  br i1 %32, label %33, label %41

33:                                               ; preds = %25
  %34 = load i64, ptr %8, align 8, !tbaa !8
  %35 = load ptr, ptr %6, align 8, !tbaa !76
  %36 = load i64, ptr %35, align 8, !tbaa !8
  %37 = call i64 @ossl_quic_vlint_encode_len(i64 noundef %36)
  %38 = icmp eq i64 %34, %37
  %39 = zext i1 %38 to i32
  %40 = load ptr, ptr %7, align 8, !tbaa !78
  store i32 %39, ptr %40, align 4, !tbaa !23
  br label %41

41:                                               ; preds = %33, %25
  store i32 1, ptr %4, align 4
  store i32 1, ptr %9, align 4
  br label %42

42:                                               ; preds = %41, %24, %13
  call void @llvm.lifetime.end.p0(i64 8, ptr %8) #7
  %43 = load i32, ptr %4, align 4
  ret i32 %43
}

; Function Attrs: inlinehint nounwind uwtable
define internal i32 @PACKET_peek_quic_vlint(ptr noundef %0, ptr noundef %1) #3 {
  %3 = alloca ptr, align 8
  %4 = alloca ptr, align 8
  store ptr %0, ptr %3, align 8, !tbaa !75
  store ptr %1, ptr %4, align 8, !tbaa !76
  %5 = load ptr, ptr %3, align 8, !tbaa !75
  %6 = load ptr, ptr %4, align 8, !tbaa !76
  %7 = call i32 @PACKET_peek_quic_vlint_ex(ptr noundef %5, ptr noundef %6, ptr noundef null)
  ret i32 %7
}

; Function Attrs: nounwind uwtable
define i32 @ossl_quic_wire_peek_transport_param(ptr noundef %0, ptr noundef %1) #0 {
  %3 = alloca ptr, align 8
  %4 = alloca ptr, align 8
  store ptr %0, ptr %3, align 8, !tbaa !75
  store ptr %1, ptr %4, align 8, !tbaa !76
  %5 = load ptr, ptr %3, align 8, !tbaa !75
  %6 = load ptr, ptr %4, align 8, !tbaa !76
  %7 = call i32 @PACKET_peek_quic_vlint(ptr noundef %5, ptr noundef %6)
  ret i32 %7
}