; Function Attrs: nounwind uwtable
define range(i32 0, 2) i32 @ossl_quic_wire_peek_transport_param(ptr noundef readonly captures(none) %0, ptr noundef writeonly captures(none) %1) local_unnamed_addr #2 {
  %3 = getelementptr i8, ptr %0, i64 8
  %.val.i.i = load i64, ptr %3, align 8, !tbaa !52
  %4 = icmp eq i64 %.val.i.i, 0
  br i1 %4, label %PACKET_peek_quic_vlint.exit, label %5

5:                                                ; preds = %2
  %6 = load ptr, ptr %0, align 8, !tbaa !54
  %7 = load i8, ptr %6, align 1, !tbaa !55
  %8 = lshr i8 %7, 6
  %9 = zext nneg i8 %8 to i32
  %10 = shl nuw nsw i32 1, %9
  %11 = zext nneg i32 %10 to i64
  %12 = icmp ult i64 %.val.i.i, %11
  br i1 %12, label %PACKET_peek_quic_vlint.exit, label %13

13:                                               ; preds = %5
  %14 = tail call i64 @ossl_quic_vlint_decode_unchecked(ptr noundef nonnull %6) #12
  store i64 %14, ptr %1, align 8, !tbaa !56
  br label %PACKET_peek_quic_vlint.exit

PACKET_peek_quic_vlint.exit:                      ; preds = %2, %5, %13
  %.0.i.i = phi i32 [ 0, %2 ], [ 0, %5 ], [ 1, %13 ]
  ret i32 %.0.i.i
}